; Function Attrs: nounwind uwtable
define ptr @l_Lake_uriEncode___boxed(ptr noundef %0) local_unnamed_addr #1 {
  %2 = getelementptr i8, ptr %0, i64 8
  %.val.i = load i64, ptr %2, align 8, !tbaa !12
  %3 = shl i64 %.val.i, 1
  %4 = add i64 %3, -1
  %5 = inttoptr i64 %4 to ptr
  %6 = load ptr, ptr @l_Lake_instInhabitedRegistrySrc___closed__1, align 8, !tbaa !10
  %7 = tail call ptr @l_String_foldlAux___at_Lake_uriEncode___spec__1(ptr noundef %0, ptr noundef nonnull %5, ptr noundef nonnull inttoptr (i64 1 to ptr), ptr noundef %6)
  %8 = ptrtoint ptr %0 to i64
  %9 = and i64 %8, 1
  %.not = icmp eq i64 %9, 0
  br i1 %.not, label %10, label %lean_dec.exit

10:                                               ; preds = %1
  %11 = load i32, ptr %0, align 4, !tbaa !4
  %12 = icmp sgt i32 %11, 1
  br i1 %12, label %13, label %15, !prof !9

13:                                               ; preds = %10
  %14 = add nsw i32 %11, -1
  store i32 %14, ptr %0, align 4, !tbaa !4
  br label %lean_dec.exit

15:                                               ; preds = %10
  %.not.i = icmp eq i32 %11, 0
  br i1 %.not.i, label %lean_dec.exit, label %16

16:                                               ; preds = %15
  tail call void @lean_dec_ref_cold(ptr noundef nonnull %0) #7
  br label %lean_dec.exit

lean_dec.exit:                                    ; preds = %16, %15, %13, %1
  ret ptr %7
}